target datalayout = "e-m:e-p270:32:32-p271:32:32-p272:64:64-i64:64-i128:128-f80:128-n8:16:32:64-S128"
target triple = "x86_64-pc-linux-gnu"

%struct.lexbor_dobject_t = type { ptr, ptr, i64, i64 }
%struct.lexbor_mem = type { ptr, ptr, i64, i64 }
%struct.lexbor_mem_chunk = type { ptr, i64, i64, ptr, ptr }

; Function Attrs: nounwind uwtable
define hidden ptr @lexbor_dobject_by_absolute_position(ptr noundef %0, i64 noundef %1) #0 {
  %3 = alloca ptr, align 8
  %4 = alloca ptr, align 8
  %5 = alloca i64, align 8
  %6 = alloca i64, align 8
  %7 = alloca i64, align 8
  %8 = alloca i64, align 8
  %9 = alloca ptr, align 8
  store ptr %0, ptr %4, align 8
  store i64 %1, ptr %5, align 8
  %10 = load i64, ptr %5, align 8
  %11 = load ptr, ptr %4, align 8
  %12 = getelementptr inbounds %struct.lexbor_dobject_t, ptr %11, i32 0, i32 2
  %13 = load i64, ptr %12, align 8
  %14 = icmp uge i64 %10, %13
  br i1 %14, label %15, label %16

15:                                               ; preds = %2
  store ptr null, ptr %3, align 8
  br label %55

16:                                               ; preds = %2
  %17 = load ptr, ptr %4, align 8
  %18 = getelementptr inbounds %struct.lexbor_dobject_t, ptr %17, i32 0, i32 0
  %19 = load ptr, ptr %18, align 8
  %20 = getelementptr inbounds %struct.lexbor_mem, ptr %19, i32 0, i32 1
  %21 = load ptr, ptr %20, align 8
  store ptr %21, ptr %9, align 8
  %22 = load i64, ptr %5, align 8
  %23 = load ptr, ptr %4, align 8
  %24 = getelementptr inbounds %struct.lexbor_dobject_t, ptr %23, i32 0, i32 3
  %25 = load i64, ptr %24, align 8
  %26 = mul i64 %22, %25
  store i64 %26, ptr %7, align 8
  %27 = load i64, ptr %7, align 8
  %28 = load ptr, ptr %4, align 8
  %29 = getelementptr inbounds %struct.lexbor_dobject_t, ptr %28, i32 0, i32 0
  %30 = load ptr, ptr %29, align 8
  %31 = getelementptr inbounds %struct.lexbor_mem, ptr %30, i32 0, i32 2
  %32 = load i64, ptr %31, align 8
  %33 = udiv i64 %27, %32
  store i64 %33, ptr %6, align 8
  store i64 0, ptr %8, align 8
  br label %34

34:                                               ; preds = %42, %16
  %35 = load i64, ptr %8, align 8
  %36 = load i64, ptr %6, align 8
  %37 = icmp ult i64 %35, %36
  br i1 %37, label %38, label %45

38:                                               ; preds = %34
  %39 = load ptr, ptr %9, align 8
  %40 = getelementptr inbounds %struct.lexbor_mem_chunk, ptr %39, i32 0, i32 3
  %41 = load ptr, ptr %40, align 8
  store ptr %41, ptr %9, align 8
  br label %42

42:                                               ; preds = %38
  %43 = load i64, ptr %8, align 8
  %44 = add i64 %43, 1
  store i64 %44, ptr %8, align 8
  br label %34

45:                                               ; preds = %34
  %46 = load ptr, ptr %9, align 8
  %47 = getelementptr inbounds %struct.lexbor_mem_chunk, ptr %46, i32 0, i32 0
  %48 = load ptr, ptr %47, align 8
  %49 = load i64, ptr %7, align 8
  %50 = load ptr, ptr %9, align 8
  %51 = getelementptr inbounds %struct.lexbor_mem_chunk, ptr %50, i32 0, i32 2
  %52 = load i64, ptr %51, align 8
  %53 = urem i64 %49, %52
  %54 = getelementptr inbounds i8, ptr %48, i64 %53
  store ptr %54, ptr %3, align 8
  br label %55

55:                                               ; preds = %45, %15
  %56 = load ptr, ptr %3, align 8
  ret ptr %56
}