; Function Attrs: nofree norecurse nosync nounwind memory(read, inaccessiblemem: none) uwtable
define hidden ptr @lexbor_dobject_by_absolute_position(ptr nocapture noundef readonly %0, i64 noundef %1) local_unnamed_addr #3 {
  %3 = getelementptr inbounds i8, ptr %0, i64 16
  %4 = load i64, ptr %3, align 8
  %.not = icmp ugt i64 %4, %1
  br i1 %.not, label %5, label %22

5:                                                ; preds = %2
  %6 = load ptr, ptr %0, align 8
  %7 = getelementptr inbounds i8, ptr %6, i64 8
  %8 = getelementptr inbounds i8, ptr %0, i64 24
  %9 = load i64, ptr %8, align 8
  %10 = mul i64 %9, %1
  %11 = getelementptr inbounds i8, ptr %6, i64 16
  %12 = load i64, ptr %11, align 8
  %13 = udiv i64 %10, %12
  %.017 = load ptr, ptr %7, align 8
  %.not20 = icmp ugt i64 %12, %10
  br i1 %.not20, label %._crit_edge, label %.lr.ph

.lr.ph:                                           ; preds = %5, %.lr.ph
  %.019 = phi ptr [ %.0, %.lr.ph ], [ %.017, %5 ]
  %.01418 = phi i64 [ %15, %.lr.ph ], [ 0, %5 ]
  %14 = getelementptr inbounds i8, ptr %.019, i64 24
  %15 = add nuw i64 %.01418, 1
  %.0 = load ptr, ptr %14, align 8
  %16 = icmp ult i64 %15, %13
  br i1 %16, label %.lr.ph, label %._crit_edge

._crit_edge:                                      ; preds = %.lr.ph, %5
  %.0.lcssa = phi ptr [ %.017, %5 ], [ %.0, %.lr.ph ]
  %17 = load ptr, ptr %.0.lcssa, align 8
  %18 = getelementptr inbounds i8, ptr %.0.lcssa, i64 16
  %19 = load i64, ptr %18, align 8
  %20 = urem i64 %10, %19
  %21 = getelementptr inbounds i8, ptr %17, i64 %20
  br label %22

22:                                               ; preds = %2, %._crit_edge
  %.015 = phi ptr [ %21, %._crit_edge ], [ null, %2 ]
  ret ptr %.015
}